target datalayout = "e-m:e-p270:32:32-p271:32:32-p272:64:64-i64:64-i128:128-f80:128-n8:16:32:64-S128"
target triple = "x86_64-pc-linux-gnu"

%struct.ssl_connection_st = type { %struct.ssl_st, ptr, i32, ptr, ptr, ptr, i32, ptr, i32, i32, i32, i32, %struct.OSSL_TIME, %struct.OSSL_TIME, %struct.ossl_statem_st, i32, ptr, ptr, i64, i64, i64, %struct.ossl_quic_tls_callbacks_st, ptr, ptr, %struct.anon, ptr, ptr, ptr, i32, ptr, %struct.ssl_dane_st, ptr, ptr, ptr, ptr, i32, [64 x i8], [64 x i8], [64 x i8], [64 x i8], [64 x i8], [64 x i8], [64 x i8], [64 x i8], [64 x i8], [64 x i8], [64 x i8], [64 x i8], ptr, [64 x i8], i64, i32, i64, [32 x i8], ptr, ptr, ptr, i64, ptr, [32 x i8], i64, i32, ptr, ptr, i32, i32, ptr, ptr, ptr, ptr, ptr, i64, ptr, ptr, i64, i32, i32, i32, i64, i32, i32, i64, i64, i64, %struct.anon.1, ptr, i32, ptr, ptr, ptr, i32, ptr, ptr, ptr, i32, i32, i32, i32, ptr, i64, i32, ptr, %struct.srp_ctx_st, ptr, %struct.record_layer_st, ptr, ptr, ptr, ptr, i64, i32, i32, i32, i64, i64, i64, ptr, ptr, ptr, ptr, ptr, i64, ptr, i64, ptr, i64 }
%struct.ssl_st = type { i32, ptr, ptr, ptr, %struct.CRYPTO_REF_COUNT, ptr, %struct.crypto_ex_data_st }
%struct.CRYPTO_REF_COUNT = type { i32 }
%struct.crypto_ex_data_st = type { ptr, ptr }
%struct.OSSL_TIME = type { i64 }
%struct.ossl_statem_st = type { i32, i32, i32, i32, i32, i32, i32, i32, i32, i32, i32, i32, i32, ptr, ptr, ptr, i8 }
%struct.ossl_quic_tls_callbacks_st = type { ptr, ptr, ptr, ptr, ptr, ptr }
%struct.anon = type { i64, [32 x i8], [32 x i8], ptr, ptr, i32, i32, i32, i32, [2 x i8], i32, i32, i32, i32, %struct.anon.0, [64 x i8], i64, [64 x i8], i64, i32, i32, ptr, i64, ptr, i64, i32, i8, i8, i16, ptr, i16 }
%struct.anon.0 = type { [128 x i8], i64, [128 x i8], i64, i64, i32, ptr, ptr, [4 x ptr], [4 x i16], i64, i32, ptr, i64, ptr, i64, ptr, ptr, ptr, i32, i64, ptr, i32, ptr, i64, ptr, i64, ptr, i64, ptr, ptr, ptr, ptr, i64, i64, ptr, ptr, i32, i32, i32, i32 }
%struct.ssl_dane_st = type { ptr, ptr, ptr, ptr, ptr, i32, i32, i32, i64 }
%struct.anon.1 = type { [29 x i8], ptr, ptr, ptr, i32, ptr, i16, i32, %struct.anon.2, i32, i32, i64, ptr, i64, ptr, i64, ptr, i64, ptr, i64, ptr, i64, ptr, ptr, ptr, ptr, ptr, ptr, ptr, i64, ptr, i64, i32, i32, i32, i32, ptr, i64, i32, i8, i32, [4 x i32], i32, i8, i8, i8, i8 }
%struct.anon.2 = type { ptr, ptr, ptr, i64 }
%struct.srp_ctx_st = type { ptr, ptr, ptr, ptr, ptr, ptr, ptr, ptr, ptr, ptr, ptr, ptr, ptr, ptr, i32, i64 }
%struct.record_layer_st = type { ptr, ptr, ptr, ptr, ptr, ptr, ptr, ptr, i64, i32, i64, [4 x i8], i64, i64, i8, ptr, i32, ptr, ptr, ptr, i64, i64, i64, i64, [32 x %struct.tls_record_st] }
%struct.tls_record_st = type { ptr, i32, i8, ptr, ptr, i64, i64, i16, [8 x i8] }
%struct.dtls1_state_st = type { [255 x i8], i64, i32, i16, i16, i16, ptr, ptr, i64, i64, %struct.hm_header_st, %struct.hm_header_st, i32, %struct.OSSL_TIME, i32, i32, ptr }
%struct.hm_header_st = type { i8, i64, i16, i64, i64, i32, %struct.dtls1_retransmit_state }
%struct.dtls1_retransmit_state = type { ptr, ptr }
%struct.ssl_ctx_st = type { ptr, ptr, ptr, ptr, ptr, ptr, ptr, i64, ptr, ptr, i32, %struct.OSSL_TIME, ptr, ptr, ptr, %struct.anon.4, %struct.CRYPTO_REF_COUNT, ptr, ptr, ptr, ptr, ptr, ptr, ptr, ptr, ptr, %struct.crypto_ex_data_st, ptr, ptr, ptr, ptr, ptr, ptr, ptr, i64, i32, i32, i32, i64, ptr, ptr, i32, ptr, ptr, i32, i64, [32 x i8], ptr, ptr, ptr, i32, ptr, ptr, ptr, i64, i64, i64, i64, ptr, ptr, ptr, ptr, ptr, %struct.anon.5, ptr, ptr, ptr, ptr, %struct.srp_ctx_st, %struct.dane_ctx_st, ptr, ptr, ptr, ptr, i32, i32, ptr, ptr, i64, i64, ptr, ptr, ptr, i64, ptr, ptr, i32, ptr, ptr, ptr, [14 x i32], [24 x ptr], [14 x ptr], [14 x i64], i64, ptr, ptr, ptr, i64, i64, ptr, i64, i64, i32, i32, i32, i32, ptr, i64, ptr, i64, i64, ptr, ptr }
%struct.anon.4 = type { i32, i32, i32, i32, i32, i32, i32, i32, i32, i32, i32 }
%struct.anon.5 = type { ptr, ptr, [16 x i8], ptr, ptr, ptr, ptr, ptr, i32, i8, i64, ptr, i64, ptr, i64, ptr, i64, ptr, ptr, i64, ptr, ptr, ptr, i64, ptr, ptr, ptr, ptr, [32 x i8] }
%struct.dane_ctx_st = type { ptr, ptr, i8, i64 }

@.str.1 = private unnamed_addr constant [36 x i8] c"../openssl/ssl/statem/statem_srvr.c\00", align 1
@__func__.dtls_construct_hello_verify_request = private unnamed_addr constant [36 x i8] c"dtls_construct_hello_verify_request\00", align 1

; Function Attrs: nounwind uwtable
define i32 @dtls_raw_hello_verify_request(ptr noundef %0, ptr noundef %1, i64 noundef %2) #0 {
  %4 = alloca i32, align 4
  %5 = alloca ptr, align 8
  %6 = alloca ptr, align 8
  %7 = alloca i64, align 8
  store ptr %0, ptr %5, align 8, !tbaa !145
  store ptr %1, ptr %6, align 8, !tbaa !168
  store i64 %2, ptr %7, align 8, !tbaa !9
  %8 = load ptr, ptr %5, align 8, !tbaa !145
  %9 = call i32 @WPACKET_put_bytes__(ptr noundef %8, i64 noundef 65279, i64 noundef 2)
  %10 = icmp ne i32 %9, 0
  br i1 %10, label %11, label %17

11:                                               ; preds = %3
  %12 = load ptr, ptr %5, align 8, !tbaa !145
  %13 = load ptr, ptr %6, align 8, !tbaa !168
  %14 = load i64, ptr %7, align 8, !tbaa !9
  %15 = call i32 @WPACKET_sub_memcpy__(ptr noundef %12, ptr noundef %13, i64 noundef %14, i64 noundef 1)
  %16 = icmp ne i32 %15, 0
  br i1 %16, label %18, label %17

17:                                               ; preds = %11, %3
  store i32 0, ptr %4, align 4
  br label %19

18:                                               ; preds = %11
  store i32 1, ptr %4, align 4
  br label %19

19:                                               ; preds = %18, %17
  %20 = load i32, ptr %4, align 4
  ret i32 %20
}

; Function Attrs: nounwind uwtable
define i32 @dtls_construct_hello_verify_request(ptr noundef %0, ptr noundef %1) #0 {
  %3 = alloca i32, align 4
  %4 = alloca ptr, align 8
  %5 = alloca ptr, align 8
  %6 = alloca i32, align 4
  %7 = alloca ptr, align 8
  %8 = alloca i32, align 4
  store ptr %0, ptr %4, align 8, !tbaa !11
  store ptr %1, ptr %5, align 8, !tbaa !145
  call void @llvm.lifetime.start.p0(i64 4, ptr %6) #9
  call void @llvm.lifetime.start.p0(i64 8, ptr %7) #9
  %9 = load ptr, ptr %4, align 8, !tbaa !11
  %10 = getelementptr inbounds nuw %struct.ssl_connection_st, ptr %9, i32 0, i32 0
  %11 = getelementptr inbounds nuw %struct.ssl_st, ptr %10, i32 0, i32 1
  %12 = load ptr, ptr %11, align 8, !tbaa !147
  store ptr %12, ptr %7, align 8, !tbaa !148
  %13 = load ptr, ptr %7, align 8, !tbaa !148
  %14 = getelementptr inbounds nuw %struct.ssl_ctx_st, ptr %13, i32 0, i32 22
  %15 = load ptr, ptr %14, align 8, !tbaa !149
  %16 = icmp eq ptr %15, null
  br i1 %16, label %34, label %17

17:                                               ; preds = %2
  %18 = load ptr, ptr %7, align 8, !tbaa !148
  %19 = getelementptr inbounds nuw %struct.ssl_ctx_st, ptr %18, i32 0, i32 22
  %20 = load ptr, ptr %19, align 8, !tbaa !149
  %21 = load ptr, ptr %4, align 8, !tbaa !11
  %22 = getelementptr inbounds nuw %struct.ssl_connection_st, ptr %21, i32 0, i32 1
  %23 = load ptr, ptr %22, align 8, !tbaa !163
  %24 = load ptr, ptr %4, align 8, !tbaa !11
  %25 = getelementptr inbounds nuw %struct.ssl_connection_st, ptr %24, i32 0, i32 25
  %26 = load ptr, ptr %25, align 8, !tbaa !107
  %27 = getelementptr inbounds nuw %struct.dtls1_state_st, ptr %26, i32 0, i32 0
  %28 = getelementptr inbounds [255 x i8], ptr %27, i64 0, i64 0
  %29 = call i32 %20(ptr noundef %23, ptr noundef %28, ptr noundef %6)
  %30 = icmp eq i32 %29, 0
  br i1 %30, label %34, label %31

31:                                               ; preds = %17
  %32 = load i32, ptr %6, align 4, !tbaa !13
  %33 = icmp ugt i32 %32, 255
  br i1 %33, label %34, label %36

34:                                               ; preds = %31, %17, %2
  call void @ERR_new()
  call void @ERR_set_debug(ptr noundef @.str.1, i32 noundef 1390, ptr noundef @__func__.dtls_construct_hello_verify_request)
  %35 = load ptr, ptr %4, align 8, !tbaa !11
  call void (ptr, i32, i32, ptr, ...) @ossl_statem_fatal(ptr noundef %35, i32 noundef -1, i32 noundef 400, ptr noundef null)
  store i32 0, ptr %3, align 4
  store i32 1, ptr %8, align 4
  br label %59

36:                                               ; preds = %31
  %37 = load i32, ptr %6, align 4, !tbaa !13
  %38 = zext i32 %37 to i64
  %39 = load ptr, ptr %4, align 8, !tbaa !11
  %40 = getelementptr inbounds nuw %struct.ssl_connection_st, ptr %39, i32 0, i32 25
  %41 = load ptr, ptr %40, align 8, !tbaa !107
  %42 = getelementptr inbounds nuw %struct.dtls1_state_st, ptr %41, i32 0, i32 1
  store i64 %38, ptr %42, align 8, !tbaa !164
  %43 = load ptr, ptr %5, align 8, !tbaa !145
  %44 = load ptr, ptr %4, align 8, !tbaa !11
  %45 = getelementptr inbounds nuw %struct.ssl_connection_st, ptr %44, i32 0, i32 25
  %46 = load ptr, ptr %45, align 8, !tbaa !107
  %47 = getelementptr inbounds nuw %struct.dtls1_state_st, ptr %46, i32 0, i32 0
  %48 = getelementptr inbounds [255 x i8], ptr %47, i64 0, i64 0
  %49 = load ptr, ptr %4, align 8, !tbaa !11
  %50 = getelementptr inbounds nuw %struct.ssl_connection_st, ptr %49, i32 0, i32 25
  %51 = load ptr, ptr %50, align 8, !tbaa !107
  %52 = getelementptr inbounds nuw %struct.dtls1_state_st, ptr %51, i32 0, i32 1
  %53 = load i64, ptr %52, align 8, !tbaa !164
  %54 = call i32 @dtls_raw_hello_verify_request(ptr noundef %43, ptr noundef %48, i64 noundef %53)
  %55 = icmp ne i32 %54, 0
  br i1 %55, label %58, label %56

56:                                               ; preds = %36
  call void @ERR_new()
  call void @ERR_set_debug(ptr noundef @.str.1, i32 noundef 1397, ptr noundef @__func__.dtls_construct_hello_verify_request)
  %57 = load ptr, ptr %4, align 8, !tbaa !11
  call void (ptr, i32, i32, ptr, ...) @ossl_statem_fatal(ptr noundef %57, i32 noundef -1, i32 noundef 786691, ptr noundef null)
  store i32 0, ptr %3, align 4
  store i32 1, ptr %8, align 4
  br label %59

58:                                               ; preds = %36
  store i32 1, ptr %3, align 4
  store i32 1, ptr %8, align 4
  br label %59

59:                                               ; preds = %58, %56, %34
  call void @llvm.lifetime.end.p0(i64 8, ptr %7) #9
  call void @llvm.lifetime.end.p0(i64 4, ptr %6) #9
  %60 = load i32, ptr %3, align 4
  ret i32 %60
}