; Function Attrs: nounwind uwtable
define range(i32 0, 2) i32 @dtls_construct_hello_verify_request(ptr noundef %0, ptr noundef %1) #1 {
  %3 = alloca i32, align 4
  call void @llvm.lifetime.start.p0(i64 4, ptr nonnull %3) #12
  %4 = getelementptr inbounds nuw i8, ptr %0, i64 8
  %5 = load ptr, ptr %4, align 8, !tbaa !136
  %6 = getelementptr inbounds nuw i8, ptr %5, i64 208
  %7 = load ptr, ptr %6, align 8, !tbaa !137
  %8 = icmp eq ptr %7, null
  br i1 %8, label %.sink.split, label %9

9:                                                ; preds = %2
  %10 = getelementptr inbounds nuw i8, ptr %0, i64 64
  %11 = load ptr, ptr %10, align 8, !tbaa !151
  %12 = getelementptr inbounds nuw i8, ptr %0, i64 1264
  %13 = load ptr, ptr %12, align 8, !tbaa !108
  %14 = call i32 %7(ptr noundef %11, ptr noundef %13, ptr noundef nonnull %3) #12
  %15 = icmp eq i32 %14, 0
  %16 = load i32, ptr %3, align 4
  %17 = icmp ugt i32 %16, 255
  %or.cond = select i1 %15, i1 true, i1 %17
  br i1 %or.cond, label %.sink.split, label %18

18:                                               ; preds = %9
  %19 = zext nneg i32 %16 to i64
  %20 = load ptr, ptr %12, align 8, !tbaa !108
  %21 = getelementptr inbounds nuw i8, ptr %20, i64 256
  store i64 %19, ptr %21, align 8, !tbaa !152
  %22 = call i32 @WPACKET_put_bytes__(ptr noundef %1, i64 noundef 65279, i64 noundef 2) #12
  %.not.i = icmp eq i32 %22, 0
  br i1 %.not.i, label %.sink.split, label %dtls_raw_hello_verify_request.exit

dtls_raw_hello_verify_request.exit:               ; preds = %18
  %23 = call i32 @WPACKET_sub_memcpy__(ptr noundef %1, ptr noundef nonnull %20, i64 noundef %19, i64 noundef 1) #12
  %.not4.i.not = icmp eq i32 %23, 0
  br i1 %.not4.i.not, label %.sink.split, label %24

.sink.split:                                      ; preds = %dtls_raw_hello_verify_request.exit, %18, %2, %9
  %.sink16 = phi i32 [ 1390, %9 ], [ 1390, %2 ], [ 1397, %18 ], [ 1397, %dtls_raw_hello_verify_request.exit ]
  %.sink = phi i32 [ 400, %9 ], [ 400, %2 ], [ 786691, %18 ], [ 786691, %dtls_raw_hello_verify_request.exit ]
  call void @ERR_new() #12
  call void @ERR_set_debug(ptr noundef nonnull @.str.1, i32 noundef %.sink16, ptr noundef nonnull @__func__.dtls_construct_hello_verify_request) #12
  call void (ptr, i32, i32, ptr, ...) @ossl_statem_fatal(ptr noundef nonnull %0, i32 noundef -1, i32 noundef %.sink, ptr noundef null) #12
  br label %24

24:                                               ; preds = %.sink.split, %dtls_raw_hello_verify_request.exit
  %.0 = phi i32 [ 1, %dtls_raw_hello_verify_request.exit ], [ 0, %.sink.split ]
  call void @llvm.lifetime.end.p0(i64 4, ptr nonnull %3) #12
  ret i32 %.0
}